; Function Attrs: mustprogress nofree nounwind memory(readwrite, inaccessiblemem: write) uwtable
define void @_ZN9Scheduler11RegisterRunE7RunModeRK6boards(ptr noundef nonnull align 8 dereferenceable(43416) %0, i32 noundef %1, ptr nocapture noundef nonnull readonly align 4 dereferenceable(21604) %2) local_unnamed_addr #6 align 2 personality ptr @__gxx_personality_v0 {
  br label %4

4:                                                ; preds = %4, %3
  %indvars.iv.i = phi i64 [ 0, %3 ], [ %indvars.iv.next.i, %4 ]
  %5 = getelementptr inbounds [200 x %"struct.Scheduler::handType"], ptr %0, i64 0, i64 %indvars.iv.i
  store i32 -1, ptr %5, align 8
  %indvars.iv.next.i = add nuw nsw i64 %indvars.iv.i, 1
  %exitcond.not.i = icmp eq i64 %indvars.iv.next.i, 200
  br i1 %exitcond.not.i, label %6, label %4, !llvm.loop !7

6:                                                ; preds = %4
  %7 = getelementptr inbounds nuw i8, ptr %0, i64 27200
  store i32 0, ptr %7, align 8
  %8 = getelementptr inbounds nuw i8, ptr %0, i64 27204
  store i32 0, ptr %8, align 4
  %9 = getelementptr inbounds nuw i8, ptr %0, i64 27212
  br label %.preheader16.i

.preheader16.i:                                   ; preds = %16, %6
  %indvars.iv26.i = phi i64 [ 0, %6 ], [ %indvars.iv.next27.i, %16 ]
  br label %14

.preheader.i:                                     ; preds = %16
  %10 = getelementptr inbounds nuw i8, ptr %0, i64 43288
  %11 = load i32, ptr %10, align 8
  %.not.i = icmp eq i32 %11, 0
  br i1 %.not.i, label %_ZN9Scheduler5ResetEv.exit, label %.lr.ph.i

.lr.ph.i:                                         ; preds = %.preheader.i
  %12 = getelementptr inbounds nuw i8, ptr %0, i64 43216
  %13 = getelementptr inbounds nuw i8, ptr %0, i64 43240
  br label %17

14:                                               ; preds = %14, %.preheader16.i
  %indvars.iv22.i = phi i64 [ 0, %.preheader16.i ], [ %indvars.iv.next23.i, %14 ]
  %15 = getelementptr inbounds [6 x [200 x %"struct.Scheduler::listType"]], ptr %9, i64 0, i64 %indvars.iv26.i, i64 %indvars.iv22.i
  store i32 -1, ptr %15, align 4
  %indvars.iv.next23.i = add nuw nsw i64 %indvars.iv22.i, 1
  %exitcond25.not.i = icmp eq i64 %indvars.iv.next23.i, 200
  br i1 %exitcond25.not.i, label %16, label %14, !llvm.loop !8

16:                                               ; preds = %14
  %indvars.iv.next27.i = add nuw nsw i64 %indvars.iv26.i, 1
  %exitcond29.not.i = icmp eq i64 %indvars.iv.next27.i, 6
  br i1 %exitcond29.not.i, label %.preheader.i, label %.preheader16.i, !llvm.loop !9

17:                                               ; preds = %17, %.lr.ph.i
  %indvars.iv30.i = phi i64 [ 0, %.lr.ph.i ], [ %indvars.iv.next31.i, %17 ]
  %18 = load ptr, ptr %12, align 8
  %19 = getelementptr inbounds i32, ptr %18, i64 %indvars.iv30.i
  store i32 -1, ptr %19, align 4
  %20 = load ptr, ptr %13, align 8
  %21 = getelementptr inbounds i32, ptr %20, i64 %indvars.iv30.i
  store i32 -1, ptr %21, align 4
  %indvars.iv.next31.i = add nuw nsw i64 %indvars.iv30.i, 1
  %22 = load i32, ptr %10, align 8
  %23 = zext i32 %22 to i64
  %24 = icmp ult i64 %indvars.iv.next31.i, %23
  br i1 %24, label %17, label %_ZN9Scheduler5ResetEv.exit, !llvm.loop !10

_ZN9Scheduler5ResetEv.exit:                       ; preds = %17, %.preheader.i
  %25 = getelementptr inbounds nuw i8, ptr %0, i64 27208
  store atomic i32 -1, ptr %25 seq_cst, align 8
  %26 = load i32, ptr %2, align 4
  %27 = getelementptr inbounds nuw i8, ptr %0, i64 43292
  store i32 %26, ptr %27, align 4
  tail call void @_ZN9Scheduler10MakeGroupsERK6boards(ptr noundef nonnull align 8 dereferenceable(43416) %0, ptr noundef nonnull align 4 dereferenceable(21604) %2)
  tail call void @_ZN9Scheduler14FinetuneGroupsEv(ptr noundef nonnull align 8 dereferenceable(43416) %0)
  switch i32 %1, label %_ZN9Scheduler9SortHandsE7RunMode.exit [
    i32 0, label %28
    i32 1, label %29
    i32 2, label %30
  ]

28:                                               ; preds = %_ZN9Scheduler5ResetEv.exit
  tail call void @_ZN9Scheduler9SortSolveEv(ptr noundef nonnull align 8 dereferenceable(43416) %0)
  br label %_ZN9Scheduler9SortHandsE7RunMode.exit

29:                                               ; preds = %_ZN9Scheduler5ResetEv.exit
  tail call void @_ZN9Scheduler8SortCalcEv(ptr noundef nonnull align 8 dereferenceable(43416) %0)
  br label %_ZN9Scheduler9SortHandsE7RunMode.exit

30:                                               ; preds = %_ZN9Scheduler5ResetEv.exit
  tail call void @_ZN9Scheduler9SortTraceEv(ptr noundef nonnull align 8 dereferenceable(43416) %0)
  br label %_ZN9Scheduler9SortHandsE7RunMode.exit

_ZN9Scheduler9SortHandsE7RunMode.exit:            ; preds = %_ZN9Scheduler5ResetEv.exit, %28, %29, %30
  ret void
}